; Function Attrs: nounwind uwtable
define void @gvrender_begin_anchor(ptr noundef %0, ptr noundef %1, ptr noundef %2, ptr noundef %3, ptr noundef %4) local_unnamed_addr #0 {
  %6 = getelementptr inbounds nuw i8, ptr %0, i64 120
  %7 = load ptr, ptr %6, align 8, !tbaa !47
  %.not = icmp eq ptr %7, null
  br i1 %.not, label %12, label %8

8:                                                ; preds = %5
  %9 = getelementptr inbounds nuw i8, ptr %7, i64 144
  %10 = load ptr, ptr %9, align 8, !tbaa !100
  %.not10 = icmp eq ptr %10, null
  br i1 %.not10, label %12, label %11

11:                                               ; preds = %8
  tail call void %10(ptr noundef nonnull %0, ptr noundef %1, ptr noundef %2, ptr noundef %3, ptr noundef %4) #22
  br label %12

12:                                               ; preds = %8, %11, %5
  ret void
}